; Function Attrs: nounwind uwtable
define dso_local range(i32 -1, 2) i32 @virtual_filepath_ex(ptr noundef readonly captures(none) %0, ptr noundef writeonly captures(none) initializes((0, 8)) %1, ptr noundef captures(address_is_null) %2) local_unnamed_addr #0 {
  %4 = alloca %struct._cwd_state, align 8
  call void @llvm.lifetime.start.p0(i64 16, ptr nonnull %4) #22
  %5 = load i64, ptr getelementptr inbounds nuw (i8, ptr @cwd_globals, i64 8), align 8, !tbaa !13
  %6 = getelementptr inbounds nuw i8, ptr %4, i64 8
  store i64 %5, ptr %6, align 8, !tbaa !12
  %7 = add i64 %5, 1
  %8 = tail call noalias ptr @_emalloc(i64 noundef %7) #24
  store ptr %8, ptr %4, align 8, !tbaa !4
  %9 = load ptr, ptr @cwd_globals, align 8, !tbaa !15
  %10 = load i64, ptr getelementptr inbounds nuw (i8, ptr @cwd_globals, i64 8), align 8, !tbaa !13
  %11 = add i64 %10, 1
  tail call void @llvm.memcpy.p0.p0.i64(ptr align 1 %8, ptr align 1 %9, i64 %11, i1 false)
  %12 = call i32 @virtual_file_ex(ptr noundef nonnull %4, ptr noundef %0, ptr noundef %2, i32 noundef 1)
  %13 = load ptr, ptr %4, align 8, !tbaa !4
  store ptr %13, ptr %1, align 8, !tbaa !34
  call void @llvm.lifetime.end.p0(i64 16, ptr nonnull %4) #22
  ret i32 %12
}